target datalayout = "e-m:e-p270:32:32-p271:32:32-p272:64:64-i64:64-i128:128-f80:128-n8:16:32:64-S128"
target triple = "x86_64-pc-linux-gnu"

%"class.std::__cxx11::basic_string" = type { %"struct.std::__cxx11::basic_string<char>::_Alloc_hider", i64, %union.anon }
%"struct.std::__cxx11::basic_string<char>::_Alloc_hider" = type { ptr }
%union.anon = type { i64, [8 x i8] }
%"class.std::vector.59" = type { %"struct.std::_Vector_base.60" }
%"struct.std::_Vector_base.60" = type { %"struct.std::_Vector_base<Assimp::Ogre::Animation *, std::allocator<Assimp::Ogre::Animation *>>::_Vector_impl" }
%"struct.std::_Vector_base<Assimp::Ogre::Animation *, std::allocator<Assimp::Ogre::Animation *>>::_Vector_impl" = type { %"struct.std::_Vector_base<Assimp::Ogre::Animation *, std::allocator<Assimp::Ogre::Animation *>>::_Vector_impl_data" }
%"struct.std::_Vector_base<Assimp::Ogre::Animation *, std::allocator<Assimp::Ogre::Animation *>>::_Vector_impl_data" = type { ptr, ptr, ptr }
%"class.std::vector.69" = type { %"struct.std::_Vector_base.70" }
%"struct.std::_Vector_base.70" = type { %"struct.std::_Vector_base<Assimp::Ogre::Bone *, std::allocator<Assimp::Ogre::Bone *>>::_Vector_impl" }
%"struct.std::_Vector_base<Assimp::Ogre::Bone *, std::allocator<Assimp::Ogre::Bone *>>::_Vector_impl" = type { %"struct.std::_Vector_base<Assimp::Ogre::Bone *, std::allocator<Assimp::Ogre::Bone *>>::_Vector_impl_data" }
%"struct.std::_Vector_base<Assimp::Ogre::Bone *, std::allocator<Assimp::Ogre::Bone *>>::_Vector_impl_data" = type { ptr, ptr, ptr }
%class.aiMatrix4x4t = type { float, float, float, float, float, float, float, float, float, float, float, float, float, float, float, float }
%"class.Assimp::Ogre::Skeleton" = type <{ %"class.std::vector.69", %"class.std::vector.59", i32, [4 x i8] }>
%class.aiVector3t = type { float, float, float }
%"class.Assimp::Ogre::Bone" = type { i16, %"class.std::__cxx11::basic_string", ptr, i32, %"class.std::vector.87", %class.aiVector3t, %class.aiQuaterniont, %class.aiVector3t, %class.aiMatrix4x4t, %class.aiMatrix4x4t }
%"class.std::vector.87" = type { %"struct.std::_Vector_base.88" }
%"struct.std::_Vector_base.88" = type { %"struct.std::_Vector_base<unsigned short, std::allocator<unsigned short>>::_Vector_impl" }
%"struct.std::_Vector_base<unsigned short, std::allocator<unsigned short>>::_Vector_impl" = type { %"struct.std::_Vector_base<unsigned short, std::allocator<unsigned short>>::_Vector_impl_data" }
%"struct.std::_Vector_base<unsigned short, std::allocator<unsigned short>>::_Vector_impl_data" = type { ptr, ptr, ptr }
%class.aiQuaterniont = type { float, float, float, float }
%"class.__gnu_cxx::__normal_iterator.120" = type { ptr }

; Function Attrs: mustprogress nounwind uwtable
define linkonce_odr hidden noundef nonnull align 8 dereferenceable(8) ptr @_ZNK9__gnu_cxx17__normal_iteratorIPKPN6Assimp4Ogre4BoneESt6vectorIS4_SaIS4_EEE4baseEv(ptr noundef nonnull align 8 dereferenceable(8) %0) #0 comdat align 2 {
  %2 = alloca ptr, align 8
  store ptr %0, ptr %2, align 8
  %3 = load ptr, ptr %2, align 8
  %4 = getelementptr inbounds nuw %"class.__gnu_cxx::__normal_iterator.120", ptr %3, i32 0, i32 0
  ret ptr %4
}

; Function Attrs: mustprogress nounwind uwtable
define linkonce_odr hidden void @_ZN9__gnu_cxx17__normal_iteratorIPKPN6Assimp4Ogre4BoneESt6vectorIS4_SaIS4_EEEC2ERKS6_(ptr noundef nonnull align 8 dereferenceable(8) %0, ptr noundef nonnull align 8 dereferenceable(8) %1) unnamed_addr #0 comdat align 2 {
  %3 = alloca ptr, align 8
  %4 = alloca ptr, align 8
  store ptr %0, ptr %3, align 8
  store ptr %1, ptr %4, align 8
  %5 = load ptr, ptr %3, align 8
  %6 = getelementptr inbounds nuw %"class.__gnu_cxx::__normal_iterator.120", ptr %5, i32 0, i32 0
  %7 = load ptr, ptr %4, align 8
  %8 = load ptr, ptr %7, align 8
  store ptr %8, ptr %6, align 8
  ret void
}

; Function Attrs: mustprogress nounwind uwtable
define linkonce_odr hidden noundef nonnull align 8 dereferenceable(8) ptr @_ZN9__gnu_cxx17__normal_iteratorIPKPN6Assimp4Ogre4BoneESt6vectorIS4_SaIS4_EEEppEv(ptr noundef nonnull align 8 dereferenceable(8) %0) #0 comdat align 2 {
  %2 = alloca ptr, align 8
  store ptr %0, ptr %2, align 8
  %3 = load ptr, ptr %2, align 8
  %4 = getelementptr inbounds nuw %"class.__gnu_cxx::__normal_iterator.120", ptr %3, i32 0, i32 0
  %5 = load ptr, ptr %4, align 8
  %6 = getelementptr inbounds nuw ptr, ptr %5, i32 1
  store ptr %6, ptr %4, align 8
  ret ptr %3
}

; Function Attrs: mustprogress nounwind uwtable
define linkonce_odr hidden noundef nonnull align 8 dereferenceable(8) ptr @_ZNK9__gnu_cxx17__normal_iteratorIPKPN6Assimp4Ogre4BoneESt6vectorIS4_SaIS4_EEEdeEv(ptr noundef nonnull align 8 dereferenceable(8) %0) #0 comdat align 2 {
  %2 = alloca ptr, align 8
  store ptr %0, ptr %2, align 8
  %3 = load ptr, ptr %2, align 8
  %4 = getelementptr inbounds nuw %"class.__gnu_cxx::__normal_iterator.120", ptr %3, i32 0, i32 0
  %5 = load ptr, ptr %4, align 8
  ret ptr %5
}

; Function Attrs: inlinehint mustprogress nounwind uwtable
define linkonce_odr hidden noundef zeroext i1 @_ZN9__gnu_cxxneIPKPN6Assimp4Ogre4BoneESt6vectorIS4_SaIS4_EEEEbRKNS_17__normal_iteratorIT_T0_EESF_(ptr noundef nonnull align 8 dereferenceable(8) %0, ptr noundef nonnull align 8 dereferenceable(8) %1) #3 comdat {
  %3 = alloca ptr, align 8
  %4 = alloca ptr, align 8
  store ptr %0, ptr %3, align 8
  store ptr %1, ptr %4, align 8
  %5 = load ptr, ptr %3, align 8
  %6 = call noundef nonnull align 8 dereferenceable(8) ptr @_ZNK9__gnu_cxx17__normal_iteratorIPKPN6Assimp4Ogre4BoneESt6vectorIS4_SaIS4_EEE4baseEv(ptr noundef nonnull align 8 dereferenceable(8) %5) #20
  %7 = load ptr, ptr %6, align 8
  %8 = load ptr, ptr %4, align 8
  %9 = call noundef nonnull align 8 dereferenceable(8) ptr @_ZNK9__gnu_cxx17__normal_iteratorIPKPN6Assimp4Ogre4BoneESt6vectorIS4_SaIS4_EEE4baseEv(ptr noundef nonnull align 8 dereferenceable(8) %8) #20
  %10 = load ptr, ptr %9, align 8
  %11 = icmp ne ptr %7, %10
  ret i1 %11
}

; Function Attrs: mustprogress nounwind uwtable
define linkonce_odr hidden ptr @_ZNKSt6vectorIPN6Assimp4Ogre4BoneESaIS3_EE3endEv(ptr noundef nonnull align 8 dereferenceable(24) %0) #0 comdat align 2 {
  %2 = alloca %"class.__gnu_cxx::__normal_iterator.120", align 8
  %3 = alloca ptr, align 8
  store ptr %0, ptr %3, align 8
  %4 = load ptr, ptr %3, align 8
  %5 = getelementptr inbounds nuw %"struct.std::_Vector_base.70", ptr %4, i32 0, i32 0
  %6 = getelementptr inbounds nuw %"struct.std::_Vector_base<Assimp::Ogre::Bone *, std::allocator<Assimp::Ogre::Bone *>>::_Vector_impl_data", ptr %5, i32 0, i32 1
  call void @_ZN9__gnu_cxx17__normal_iteratorIPKPN6Assimp4Ogre4BoneESt6vectorIS4_SaIS4_EEEC2ERKS6_(ptr noundef nonnull align 8 dereferenceable(8) %2, ptr noundef nonnull align 8 dereferenceable(8) %6) #20
  %7 = getelementptr inbounds nuw %"class.__gnu_cxx::__normal_iterator.120", ptr %2, i32 0, i32 0
  %8 = load ptr, ptr %7, align 8
  ret ptr %8
}

; Function Attrs: mustprogress nounwind uwtable
define linkonce_odr hidden ptr @_ZNKSt6vectorIPN6Assimp4Ogre4BoneESaIS3_EE5beginEv(ptr noundef nonnull align 8 dereferenceable(24) %0) #0 comdat align 2 {
  %2 = alloca %"class.__gnu_cxx::__normal_iterator.120", align 8
  %3 = alloca ptr, align 8
  store ptr %0, ptr %3, align 8
  %4 = load ptr, ptr %3, align 8
  %5 = getelementptr inbounds nuw %"struct.std::_Vector_base.70", ptr %4, i32 0, i32 0
  %6 = getelementptr inbounds nuw %"struct.std::_Vector_base<Assimp::Ogre::Bone *, std::allocator<Assimp::Ogre::Bone *>>::_Vector_impl_data", ptr %5, i32 0, i32 0
  call void @_ZN9__gnu_cxx17__normal_iteratorIPKPN6Assimp4Ogre4BoneESt6vectorIS4_SaIS4_EEEC2ERKS6_(ptr noundef nonnull align 8 dereferenceable(8) %2, ptr noundef nonnull align 8 dereferenceable(8) %6) #20
  %7 = getelementptr inbounds nuw %"class.__gnu_cxx::__normal_iterator.120", ptr %2, i32 0, i32 0
  %8 = load ptr, ptr %7, align 8
  ret ptr %8
}

; Function Attrs: mustprogress nounwind uwtable
define hidden noundef ptr @_ZNK6Assimp4Ogre8Skeleton8BoneByIdEt(ptr noundef nonnull align 8 dereferenceable(52) %0, i16 noundef zeroext %1) #0 align 2 {
  %3 = alloca ptr, align 8
  %4 = alloca ptr, align 8
  %5 = alloca i16, align 2
  %6 = alloca %"class.__gnu_cxx::__normal_iterator.120", align 8
  %7 = alloca %"class.__gnu_cxx::__normal_iterator.120", align 8
  %8 = alloca i32, align 4
  store ptr %0, ptr %4, align 8
  store i16 %1, ptr %5, align 2
  %9 = load ptr, ptr %4, align 8
  call void @llvm.lifetime.start.p0(i64 8, ptr %6) #20
  %10 = getelementptr inbounds nuw %"class.Assimp::Ogre::Skeleton", ptr %9, i32 0, i32 0
  %11 = call ptr @_ZNKSt6vectorIPN6Assimp4Ogre4BoneESaIS3_EE5beginEv(ptr noundef nonnull align 8 dereferenceable(24) %10) #20
  %12 = getelementptr inbounds nuw %"class.__gnu_cxx::__normal_iterator.120", ptr %6, i32 0, i32 0
  store ptr %11, ptr %12, align 8
  br label %13

13:                                               ; preds = %32, %2
  call void @llvm.lifetime.start.p0(i64 8, ptr %7) #20
  %14 = getelementptr inbounds nuw %"class.Assimp::Ogre::Skeleton", ptr %9, i32 0, i32 0
  %15 = call ptr @_ZNKSt6vectorIPN6Assimp4Ogre4BoneESaIS3_EE3endEv(ptr noundef nonnull align 8 dereferenceable(24) %14) #20
  %16 = getelementptr inbounds nuw %"class.__gnu_cxx::__normal_iterator.120", ptr %7, i32 0, i32 0
  store ptr %15, ptr %16, align 8
  %17 = call noundef zeroext i1 @_ZN9__gnu_cxxneIPKPN6Assimp4Ogre4BoneESt6vectorIS4_SaIS4_EEEEbRKNS_17__normal_iteratorIT_T0_EESF_(ptr noundef nonnull align 8 dereferenceable(8) %6, ptr noundef nonnull align 8 dereferenceable(8) %7) #20
  call void @llvm.lifetime.end.p0(i64 8, ptr %7) #20
  br i1 %17, label %19, label %18

18:                                               ; preds = %13
  store i32 2, ptr %8, align 4
  br label %34

19:                                               ; preds = %13
  %20 = call noundef nonnull align 8 dereferenceable(8) ptr @_ZNK9__gnu_cxx17__normal_iteratorIPKPN6Assimp4Ogre4BoneESt6vectorIS4_SaIS4_EEEdeEv(ptr noundef nonnull align 8 dereferenceable(8) %6) #20
  %21 = load ptr, ptr %20, align 8
  %22 = getelementptr inbounds nuw %"class.Assimp::Ogre::Bone", ptr %21, i32 0, i32 0
  %23 = load i16, ptr %22, align 8
  %24 = zext i16 %23 to i32
  %25 = load i16, ptr %5, align 2
  %26 = zext i16 %25 to i32
  %27 = icmp eq i32 %24, %26
  br i1 %27, label %28, label %31

28:                                               ; preds = %19
  %29 = call noundef nonnull align 8 dereferenceable(8) ptr @_ZNK9__gnu_cxx17__normal_iteratorIPKPN6Assimp4Ogre4BoneESt6vectorIS4_SaIS4_EEEdeEv(ptr noundef nonnull align 8 dereferenceable(8) %6) #20
  %30 = load ptr, ptr %29, align 8
  store ptr %30, ptr %3, align 8
  store i32 1, ptr %8, align 4
  br label %34

31:                                               ; preds = %19
  br label %32

32:                                               ; preds = %31
  %33 = call noundef nonnull align 8 dereferenceable(8) ptr @_ZN9__gnu_cxx17__normal_iteratorIPKPN6Assimp4Ogre4BoneESt6vectorIS4_SaIS4_EEEppEv(ptr noundef nonnull align 8 dereferenceable(8) %6) #20
  br label %13, !llvm.loop !19

34:                                               ; preds = %28, %18
  call void @llvm.lifetime.end.p0(i64 8, ptr %6) #20
  %35 = load i32, ptr %8, align 4
  switch i32 %35, label %39 [
    i32 2, label %36
    i32 1, label %37
  ]

36:                                               ; preds = %34
  store ptr null, ptr %3, align 8
  br label %37

37:                                               ; preds = %36, %34
  %38 = load ptr, ptr %3, align 8
  ret ptr %38

39:                                               ; preds = %34
  unreachable
}