; Function Attrs: mustprogress nofree norecurse nosync nounwind willreturn memory(read, inaccessiblemem: none) uwtable
define hidden noundef ptr @_ZNK6Assimp4Ogre8Skeleton8BoneByIdEt(ptr noundef nonnull readonly align 8 captures(none) dereferenceable(52) %0, i16 noundef zeroext %1) local_unnamed_addr #9 align 2 {
  %3 = load ptr, ptr %0, align 8
  %4 = getelementptr inbounds nuw i8, ptr %0, i64 8
  %5 = load ptr, ptr %4, align 8
  %.not8 = icmp eq ptr %3, %5
  br i1 %.not8, label %._crit_edge, label %.lr.ph

6:                                                ; preds = %.lr.ph
  %7 = getelementptr inbounds nuw i8, ptr %.sroa.04.09, i64 8
  %.not = icmp eq ptr %7, %5
  br i1 %.not, label %._crit_edge, label %.lr.ph, !llvm.loop !39

.lr.ph:                                           ; preds = %2, %6
  %.sroa.04.09 = phi ptr [ %7, %6 ], [ %3, %2 ]
  %8 = load ptr, ptr %.sroa.04.09, align 8
  %9 = load i16, ptr %8, align 8
  %10 = icmp eq i16 %9, %1
  br i1 %10, label %._crit_edge, label %6

._crit_edge:                                      ; preds = %6, %.lr.ph, %2
  %spec.select = phi ptr [ null, %2 ], [ %8, %.lr.ph ], [ null, %6 ]
  ret ptr %spec.select
}